target datalayout = "e-m:e-p270:32:32-p271:32:32-p272:64:64-i64:64-i128:128-f80:128-n8:16:32:64-S128"
target triple = "x86_64-pc-linux-gnu"

%struct._typeobject = type { %struct.PyVarObject, ptr, i64, i64, ptr, i64, ptr, ptr, ptr, ptr, ptr, ptr, ptr, ptr, ptr, ptr, ptr, ptr, ptr, i64, ptr, ptr, ptr, ptr, i64, ptr, ptr, ptr, ptr, ptr, ptr, ptr, ptr, ptr, i64, ptr, ptr, ptr, ptr, ptr, ptr, ptr, ptr, ptr, ptr, ptr, i32, ptr, ptr, i8, i16 }
%struct.PyVarObject = type { %struct._object, i64 }
%struct._object = type { %union.anon, ptr }
%union.anon = type { i64 }

@PyExc_TypeError = external global ptr, align 8
@.str.8 = private unnamed_addr constant [30 x i8] c"argument list must be a tuple\00", align 1
@.str.9 = private unnamed_addr constant [34 x i8] c"keyword list must be a dictionary\00", align 1
@_Py_tss_tstate = external thread_local global ptr, align 8

; Function Attrs: inlinehint nounwind uwtable
define internal i32 @PyType_HasFeature(ptr noundef %0, i64 noundef %1) #1 {
  %3 = alloca ptr, align 8
  %4 = alloca i64, align 8
  %5 = alloca i64, align 8
  store ptr %0, ptr %3, align 8, !tbaa !49
  store i64 %1, ptr %4, align 8, !tbaa !37
  call void @llvm.lifetime.start.p0(i64 8, ptr %5) #9
  %6 = load ptr, ptr %3, align 8, !tbaa !49
  %7 = getelementptr inbounds nuw %struct._typeobject, ptr %6, i32 0, i32 19
  %8 = load i64, ptr %7, align 8, !tbaa !46
  store i64 %8, ptr %5, align 8, !tbaa !37
  %9 = load i64, ptr %5, align 8, !tbaa !37
  %10 = load i64, ptr %4, align 8, !tbaa !37
  %11 = and i64 %9, %10
  %12 = icmp ne i64 %11, 0
  %13 = zext i1 %12 to i32
  call void @llvm.lifetime.end.p0(i64 8, ptr %5) #9
  ret i32 %13
}

; Function Attrs: inlinehint nounwind uwtable
define internal ptr @_Py_TYPE(ptr noundef %0) #1 {
  %2 = alloca ptr, align 8
  store ptr %0, ptr %2, align 8, !tbaa !9
  %3 = load ptr, ptr %2, align 8, !tbaa !9
  %4 = getelementptr inbounds nuw %struct._object, ptr %3, i32 0, i32 1
  %5 = load ptr, ptr %4, align 8, !tbaa !35
  ret ptr %5
}

; Function Attrs: inlinehint nounwind uwtable
define internal ptr @_PyThreadState_GET() #1 {
  %1 = call align 8 ptr @llvm.threadlocal.address.p0(ptr align 8 @_Py_tss_tstate)
  %2 = load ptr, ptr %1, align 8, !tbaa !4
  ret ptr %2
}

; Function Attrs: nounwind uwtable
define dso_local ptr @PyEval_CallObjectWithKeywords(ptr noundef %0, ptr noundef %1, ptr noundef %2) #0 {
  %4 = alloca ptr, align 8
  %5 = alloca ptr, align 8
  %6 = alloca ptr, align 8
  %7 = alloca ptr, align 8
  %8 = alloca ptr, align 8
  %9 = alloca i32, align 4
  store ptr %0, ptr %5, align 8, !tbaa !9
  store ptr %1, ptr %6, align 8, !tbaa !9
  store ptr %2, ptr %7, align 8, !tbaa !9
  call void @llvm.lifetime.start.p0(i64 8, ptr %8) #9
  %10 = call ptr @_PyThreadState_GET()
  store ptr %10, ptr %8, align 8, !tbaa !4
  %11 = load ptr, ptr %6, align 8, !tbaa !9
  %12 = icmp ne ptr %11, null
  br i1 %12, label %13, label %21

13:                                               ; preds = %3
  %14 = load ptr, ptr %6, align 8, !tbaa !9
  %15 = call ptr @_Py_TYPE(ptr noundef %14)
  %16 = call i32 @PyType_HasFeature(ptr noundef %15, i64 noundef 67108864)
  %17 = icmp ne i32 %16, 0
  br i1 %17, label %21, label %18

18:                                               ; preds = %13
  %19 = load ptr, ptr %8, align 8, !tbaa !4
  %20 = load ptr, ptr @PyExc_TypeError, align 8, !tbaa !9
  call void @_PyErr_SetString(ptr noundef %19, ptr noundef %20, ptr noundef @.str.8)
  store ptr null, ptr %4, align 8
  store i32 1, ptr %9, align 4
  br label %46

21:                                               ; preds = %13, %3
  %22 = load ptr, ptr %7, align 8, !tbaa !9
  %23 = icmp ne ptr %22, null
  br i1 %23, label %24, label %32

24:                                               ; preds = %21
  %25 = load ptr, ptr %7, align 8, !tbaa !9
  %26 = call ptr @_Py_TYPE(ptr noundef %25)
  %27 = call i32 @PyType_HasFeature(ptr noundef %26, i64 noundef 536870912)
  %28 = icmp ne i32 %27, 0
  br i1 %28, label %32, label %29

29:                                               ; preds = %24
  %30 = load ptr, ptr %8, align 8, !tbaa !4
  %31 = load ptr, ptr @PyExc_TypeError, align 8, !tbaa !9
  call void @_PyErr_SetString(ptr noundef %30, ptr noundef %31, ptr noundef @.str.9)
  store ptr null, ptr %4, align 8
  store i32 1, ptr %9, align 4
  br label %46

32:                                               ; preds = %24, %21
  %33 = load ptr, ptr %6, align 8, !tbaa !9
  %34 = icmp eq ptr %33, null
  br i1 %34, label %35, label %40

35:                                               ; preds = %32
  %36 = load ptr, ptr %8, align 8, !tbaa !4
  %37 = load ptr, ptr %5, align 8, !tbaa !9
  %38 = load ptr, ptr %7, align 8, !tbaa !9
  %39 = call ptr @_PyObject_VectorcallDictTstate(ptr noundef %36, ptr noundef %37, ptr noundef null, i64 noundef 0, ptr noundef %38)
  store ptr %39, ptr %4, align 8
  store i32 1, ptr %9, align 4
  br label %46

40:                                               ; preds = %32
  %41 = load ptr, ptr %8, align 8, !tbaa !4
  %42 = load ptr, ptr %5, align 8, !tbaa !9
  %43 = load ptr, ptr %6, align 8, !tbaa !9
  %44 = load ptr, ptr %7, align 8, !tbaa !9
  %45 = call ptr @_PyObject_Call(ptr noundef %41, ptr noundef %42, ptr noundef %43, ptr noundef %44)
  store ptr %45, ptr %4, align 8
  store i32 1, ptr %9, align 4
  br label %46

46:                                               ; preds = %40, %35, %29, %18
  call void @llvm.lifetime.end.p0(i64 8, ptr %8) #9
  %47 = load ptr, ptr %4, align 8
  ret ptr %47
}