; Function Attrs: nounwind uwtable
define dso_local ptr @PyEval_CallObjectWithKeywords(ptr noundef %0, ptr noundef %1, ptr noundef %2) local_unnamed_addr #0 {
  %4 = tail call align 8 ptr @llvm.threadlocal.address.p0(ptr align 8 @_Py_tss_tstate)
  %5 = load ptr, ptr %4, align 8, !tbaa !25
  %.not = icmp eq ptr %1, null
  br i1 %.not, label %12, label %6

6:                                                ; preds = %3
  %7 = getelementptr i8, ptr %1, i64 8
  %.val20 = load ptr, ptr %7, align 8, !tbaa !20
  %8 = getelementptr i8, ptr %.val20, i64 168
  %.val22 = load i64, ptr %8, align 8, !tbaa !34
  %9 = and i64 %.val22, 67108864
  %.not17 = icmp eq i64 %9, 0
  br i1 %.not17, label %10, label %12

10:                                               ; preds = %6
  %11 = load ptr, ptr @PyExc_TypeError, align 8, !tbaa !23
  tail call void @_PyErr_SetString(ptr noundef %5, ptr noundef %11, ptr noundef nonnull @.str.8) #10
  br label %24

12:                                               ; preds = %6, %3
  %.not18 = icmp eq ptr %2, null
  br i1 %.not18, label %19, label %13

13:                                               ; preds = %12
  %14 = getelementptr i8, ptr %2, i64 8
  %.val = load ptr, ptr %14, align 8, !tbaa !20
  %15 = getelementptr i8, ptr %.val, i64 168
  %.val21 = load i64, ptr %15, align 8, !tbaa !34
  %16 = and i64 %.val21, 536870912
  %.not19 = icmp eq i64 %16, 0
  br i1 %.not19, label %17, label %19

17:                                               ; preds = %13
  %18 = load ptr, ptr @PyExc_TypeError, align 8, !tbaa !23
  tail call void @_PyErr_SetString(ptr noundef %5, ptr noundef %18, ptr noundef nonnull @.str.9) #10
  br label %24

19:                                               ; preds = %13, %12
  br i1 %.not, label %20, label %22

20:                                               ; preds = %19
  %21 = tail call ptr @_PyObject_VectorcallDictTstate(ptr noundef %5, ptr noundef %0, ptr noundef null, i64 noundef 0, ptr noundef %2)
  br label %24

22:                                               ; preds = %19
  %23 = tail call ptr @_PyObject_Call(ptr noundef %5, ptr noundef %0, ptr noundef nonnull %1, ptr noundef %2)
  br label %24

24:                                               ; preds = %22, %20, %17, %10
  %.0 = phi ptr [ %21, %20 ], [ %23, %22 ], [ null, %17 ], [ null, %10 ]
  ret ptr %.0
}